; Function Attrs: nounwind uwtable
define void @ossl_quic_channel_local_close(ptr noundef %0, i64 noundef %1, ptr noundef %2) local_unnamed_addr #0 {
  %4 = alloca %struct.quic_terminate_cause_st, align 8
  call void @llvm.lifetime.start.p0(i64 40, ptr nonnull %4) #15
  %5 = getelementptr inbounds nuw i8, ptr %4, i64 8
  call void @llvm.memset.p0.i64(ptr noundef nonnull align 8 dereferenceable(40) %5, i8 0, i64 32, i1 false)
  %6 = getelementptr i8, ptr %0, i64 1568
  %.val.i = load i64, ptr %6, align 8
  %7 = and i64 %.val.i, 6
  %narrow.i.not.i = icmp ne i64 %7, 2
  %8 = and i64 %.val.i, 7
  %9 = icmp ne i64 %8, 4
  %narrow.i.not = and i1 %narrow.i.not.i, %9
  br i1 %narrow.i.not, label %10, label %18

10:                                               ; preds = %3
  %11 = getelementptr inbounds nuw i8, ptr %4, i64 32
  store i8 1, ptr %11, align 8
  store i64 %1, ptr %4, align 8, !tbaa !208
  %12 = getelementptr inbounds nuw i8, ptr %4, i64 16
  store ptr %2, ptr %12, align 8, !tbaa !209
  %.not5 = icmp eq ptr %2, null
  br i1 %.not5, label %15, label %13

13:                                               ; preds = %10
  %14 = tail call i64 @strlen(ptr noundef nonnull dereferenceable(1) %2) #16
  br label %15

15:                                               ; preds = %10, %13
  %16 = phi i64 [ %14, %13 ], [ 0, %10 ]
  %17 = getelementptr inbounds nuw i8, ptr %4, i64 24
  store i64 %16, ptr %17, align 8, !tbaa !210
  call fastcc void @ch_start_terminating(ptr noundef nonnull %0, ptr noundef %4, i32 noundef 0)
  br label %18

18:                                               ; preds = %3, %15
  call void @llvm.lifetime.end.p0(i64 40, ptr nonnull %4) #15
  ret void
}